(dp1
S'output'
p2
S"<type 'exceptions.KeyError'> 'vars'"
p3
sS'layer'
p4
S'C:\\Users\\Aristos\\Downloads\\web2py_win\\web2py\\applications\\Project0\\controllers/default.py'
p5
sS'code'
p6
S'    # -*- coding: utf-8 -*-\n# this file is released under public domain and you can use without limitations\n\n# -------------------------------------------------------------------------\n# This is a sample controller\n# - index is the default action of any application\n# - user is required for authentication and authorization\n# - download is for downloading files uploaded in the db (does streaming)\n# -------------------------------------------------------------------------\n\n\ndef index():\n    return dict()\n\ndef params():\n    form=SQLFORM.factory(\n        Field(\'vars\',label=T(\'Select number of variables\'),type=\'int\',requires=(IS_NOT_EMPTY(),IS_INT_IN_RANGE(2, 10,error_message=\'Input must be an integer between 2 and 10\'))),\n        Field(\'con\',label=T(\'Select number of constraints\'),type=\'int\',requires=(IS_NOT_EMPTY(),IS_INT_IN_RANGE(1, 10,error_message=\'Input must be an integer between 1 and 10\')))\n\n        )\n    if form.process(dbio=False).accepted:\n        variables=int(form.vars.vars)+1\n        constraints=int(form.vars.con)+1\n        redirect(URL(\'create_problem\',vars=dict(vars=variables,cons=constraints)))\n    return dict(form=form)\n\n\ndef create_problem():\n    import json\n    try:\n\n        variables=int(request.vars[\'vars\'])\n        constraints=int(request.vars[\'cons\'])\n              \n    except Exception as e:\n        redirect(URL(\'index\'))\n        return dict()\n\n    fields=[]\n    fields.append(Field(\'probtype\',label=T(\'Problem Type\'),requires=IS_IN_SET({\'LpMaximize\':\'Maximize\',\'LpMinimize\':\'Minimize\'},zero=None)))\n    varnames=[]\n    for i in range(1, variables):\n        fields.append(Field(\'x_{va}\'.format(va=i),label=\'x_{va}\'.format(va=i),requires=(IS_NOT_EMPTY(),IS_FLOAT_IN_RANGE(None, None,error_message=\'Input must be a decimal number\'))))\n    for i in range(1, constraints):\n        for j in range(1, variables):\n            fields.append(Field(\'c_{co}x_{va}\'.format(co=i,va=j),label=\'x_{va}\'.format(va=j),requires=(IS_NOT_EMPTY(),IS_FLOAT_IN_RANGE(None, None,error_message=\'Input must be a decimal number\'))))\n        fields.append(Field(\'cotype_{co}\'.format(co=i),requires=IS_IN_SET({\'<=\':\'\xe2\x89\xa4\',\'=\':\'=\',\'>=\':\'\xe2\x89\xa5\'},zero=None)))\n        fields.append(Field(\'b_{co}\'.format(co=i),requires=(IS_NOT_EMPTY(),IS_FLOAT_IN_RANGE(None, None,error_message=\'Input must be a decimal number\'))))\n    form=SQLFORM.factory(*fields,table_name=\'problem_variables\')\n    if form.process().accepted:\n            redirect(URL(\'solution\',vars=dict(problem=json.dumps(form.vars),variables=variables,constraints=constraints)))\n    return dict(form=form,vars=variables,cos=constraints)\n\ndef solution():\n    import json\n    from pulp import *\n    from treelib import Node, Tree\n    import math\n    import random\n    try:\n\n        variables=int(request.vars[\'variables\'])\n        constraints=int(request.vars[\'constraints\'])\n              \n    except Exception as e:\n        redirect(URL(\'index\'))\n        return dict()\n    problem=json.loads(request.vars[\'problem\'])    \n    if problem[\'probtype\']==\'LpMaximize\':\n        probtype=LpMaximize\n    else:\n        probtype=LpMinimize\n    # problem define\n    prob = LpProblem("Branch & Bound", probtype )\n    variableslist=[]\n    objective=\'\'\n    for i in range(1,variables):\n        variableslist.append(LpVariable(\'x_{no}\'.format(no=i),0)) #create the variables\n        objective+=variableslist[i-1]*problem[\'x_{var}\'.format(var=i)] #objective function define\n    prob+=objective, "obj" #final objective function\n    constraint=[]\n    #constraints declare\n    for i in range(1,constraints):\n        constraint=variableslist[0]*problem[\'c_{con}x_1\'.format(con=i)] \n        for j in range(2,variables):\n            constraint+=variableslist[j-1]*problem[\'c_{con}x_{var}\'.format(con=i,var=j)]\n        if problem[\'cotype_{con}\'.format(con=i)]==\'<=\':\n            prob+= constraint <= problem[\'b_{con}\'.format(con=i)]  \n        elif problem[\'cotype_{con}\'.format(con=i)]==\'>=\':\n            prob+= constraint >= problem[\'b_{con}\'.format(con=i)]\n        else:\n            prob+= constraint == problem[\'b_{con}\'.format(con=i)]\n    prob.solve()\n    if LpStatus[prob.status]!=\'Optimal\': #if solution is not optimal we are done. It is either "Not Solved" or "Infeasible" or "Unbounded" or "Undefined"\n        return dict(result=LpStatus[prob.status],example=\'none\',best_node=\'none\')\n    # We create the tree for the branch and bound\n    tree=Tree()\n    Result={} #result of the problem\n    Result[\'obj\']=value(prob.objective)\n    node_list=[] #list of node names\n    best_node={} #best node every time\n    best_node[\'node\']=\'none\'\n    best_node[\'limit\']=-float(\'inf\')\n    non_int_variables=[] #non int variables of current problem\n    solution=True\n    for v in prob.variables(): \n        Result[\'vars\'][v.name]=\'{var}={value}\'.format(var=v.name,value=v.varValue)\n        if not Result[v.name].is_integer():\n            solution=False  # We find that there is a non-integer variable\n            non_int_variables.append(v.name)\n    if solution==True: # All variables in the solution are integers so we have the solution\n        best_node[\'node\']=\'original\'\n        best_node[\'limit\']=value(prob.objective)\n        best_node[\'result\']=Result\n    else:\n        node_list.append(\'original\')\n    tree.create_node(\'Original\',\'original\',data={\'status\':LpStatus[prob.status],\'problem\':prob,\'non_int\':non_int_variables,\'result\':Result}) # First node is the original problem\n    p=0\n    while node_list:\n        #for every node that we examine we create 2 new nodes based on the two new constraints that we insert each for a the new problem\n        solution=True\n        branch_node=node_list[0] # We select the last inserted node for branching. We use the FIFO method for selecting the node.\n        node_list.remove(branch_node) # And then we remove it from the nodes to be examined\n        non_integer_variables=tree.get_node(\'{node}\'.format(node=branch_node)).data[\'non_int\'] # we get the non_integer variables from the node\n        branch_variable=random.choice(non_integer_variables) # And then we randomly select which of them tou cut for branch and bound\n        down=int(tree.get_node(\'{node}\'.format(node=branch_node)).data[\'result\'][branch_variable])\n        up=math.ceil(tree.get_node(\'{node}\'.format(node=branch_node)).data[\'result\'][branch_variable])\n        temp=tree.get_node(\'{node}\'.format(node=branch_node)).data[\'problem\'].copy() # We take the node problem and we create the new one with the new constraint\n        var_index=int(branch_variable.split(\'_\')[1])-1\n        temp+=variableslist[var_index]<=down\n        new_constraint=\'{x}<={bs}\'.format(x=variableslist[var_index],bs=down)\n        temp.solve()\n        Result={}\n        non_int_variables=[]\n        if LpStatus[temp.status]==\'Optimal\':\n            Result[\'obj\']=value(temp.objective)\n            for v in temp.variables():\n                Result[\'vars\'][v.name]=\'{var}={value}\'.format(var=v.name,value=v.varValue)\n                if not Result[v.name].is_integer():\n                    solution=False\n                    non_int_variables.append(v.name)\n            if solution==False:\n                if best_node[\'node\']==\'none\': #If we don\'t have a solution for now or....\n                    node_list.append(\'node{no}\'.format(no=p))\n                else:\n                    if problem[\'probtype\']==\'LpMaximize\': #If we already have a solution already we have to find if our current objective function solution is better than our limit\n                        if Result[\'obj\']>best_node[\'limit\']:\n                            node_list.append(\'node{no}\'.format(no=p))\n                    else:\n                        if Result[\'obj\']<best_node[\'limit\']:\n                            node_list.append(\'node{no}\'.format(no=p))\n            else: #in case that we have a solution we have to compare it with the limit\n                if problem[\'probtype\']==\'LpMaximize\':\n                    if Result[\'obj\']>best_node[\'limit\']:\n                            best_node[\'node\']=\'node{no}\'.format(no=p)\n                            best_node[\'limit\']=Result[\'obj\']\n                            best_node[\'result\']=Result\n                else:\n                    if Result[\'obj\']<best_node[\'limit\']:\n                        best_node[\'node\']=\'node{no}\'.format(no=p)\n                        best_node[\'limit\']=Result[\'obj\']\n                        best_node[\'result\']=Result\n            tree.create_node(\'node{no}\'.format(no=p),\'node{no}\'.format(no=p),parent=\'{node}\'.format(node=branch_node),data={\'status\':LpStatus[temp.status],\'problem\':temp,\'non_int\':non_int_variables,\'result\':Result,\'new_constraint\':new_constraint})\n        else:\n            tree.create_node(\'node{no}\'.format(no=p),\'node{no}\'.format(no=p),parent=\'{node}\'.format(node=branch_node),data={\'status\':LpStatus[temp.status],\'problem\':temp,\'non_int\':non_int_variables,\'result\':{\'obj\':LpStatus[temp.status]},\'new_constraint\':new_constraint})\n\n        p+=1\n        temp=tree.get_node(\'{node}\'.format(node=branch_node)).data[\'problem\'].copy()\n        temp+=variableslist[var_index]>=up\n        new_constraint=\'{x}>={bs}\'.format(x=variableslist[var_index],bs=up)\n        temp.solve()\n        Result={}\n        non_int_variables=[]\n        solution=True\n        if LpStatus[temp.status]==\'Optimal\':\n            Result[\'obj\']=value(temp.objective)\n            for v in temp.variables():\n                Result[\'vars\'][v.name]=\'{var}={value}\'.format(var=v.name,value=v.varValue)\n                if not Result[v.name].is_integer():\n                    solution=False\n                    non_int_variables.append(v.name)\n            if solution==False:\n                if best_node[\'node\']==\'none\': #If we don\'t have a solution for now or....\n                    node_list.append(\'node{no}\'.format(no=p))\n                else:\n                    if problem[\'probtype\']==\'LpMaximize\': #If we already have a solution we already have to find if our current objective function solution is better than our limit\n                        if Result[\'obj\']>best_node[\'limit\']:\n                            node_list.append(\'node{no}\'.format(no=p))\n                    else:\n                        if Result[\'obj\']<best_node[\'limit\']:\n                            node_list.append(\'node{no}\'.format(no=p))\n            else: #in case that we have a solution we have to compare it with the limit\n                if problem[\'probtype\']==\'LpMaximize\':\n                    if Result[\'obj\']>best_node[\'limit\']:\n                            best_node[\'node\']=\'node{no}\'.format(no=p)\n                            best_node[\'limit\']=Result[\'obj\']\n                            best_node[\'result\']=Result\n                else:\n                    if Result[\'obj\']<best_node[\'limit\']:\n                        best_node[\'node\']=\'node{no}\'.format(no=p)\n                        best_node[\'limit\']=Result[\'obj\']\n                        best_node[\'result\']=Result\n            tree.create_node(\'node{no}\'.format(no=p),\'node{no}\'.format(no=p),parent=\'{node}\'.format(node=branch_node),data={\'status\':LpStatus[temp.status],\'problem\':temp,\'non_int\':non_int_variables,\'result\':Result,\'new_constraint\':new_constraint})\n        else:\n            tree.create_node(\'node{no}\'.format(no=p),\'node{no}\'.format(no=p),parent=\'{node}\'.format(node=branch_node),data={\'status\':LpStatus[temp.status],\'problem\':temp,\'non_int\':non_int_variables,\'result\':{\'obj\':LpStatus[temp.status]},\'new_constraint\':new_constraint})\n\n        p+=1\n    \n    for node in tree.all_nodes():\n        node.data.pop(\'problem\',None)\n        node.data.pop(\'non_int\',None)\n    tree_data=[]\n    node_list=tree.all_nodes()\n    for node in range(0,len(node_list)):\n        if not node_list[node].is_root():\n            if node_list[node].data[\'result\'][\'obj\'] == \'Infeasible\': \n                temp_list=[{\'v\':node_list[node].identifier,\'f\':\'<div style="font-size:0.8em">{new}</div>{obj}\'.format(new=node_list[node].data[\'new_constraint\'],obj=node_list[node].data[\'result\'][\'obj\'])},tree.parent(node_list[node].identifier).identifier,\'\']\n            else:\n                temp_list=[{\'v\':node_list[node].identifier,\'f\':\'<div style="font-size:0.8em">{new}</div>z={obj}<div style="color:red; font-style:italic">{vars}</div>\'.format(new=node_list[node].data[\'new_constraint\'],obj=node_list[node].data[\'result\'][\'obj\'], vars=node_list[node].data[\'result\'][\'vars\'])},tree.parent(node_list[node].identifier).identifier,\'\']\n\n        else:\n            temp_list=[{\'v\':node_list[node].identifier,\'f\':\'z={obj}<div style="color:red; font-style:italic">{vars}</div>\'.format(obj=node_list[node].data[\'result\'][\'obj\'],vars=node_list[node].data[\'result\'][\'vars\'])},\'\',\'\']\n        tree_data.append(temp_list)\n    \n    return dict(result=\'Feasible\',example=tree_data,best_node=best_node[\'node\'])\n\n\nresponse._vars=response._caller(solution)\n'
p7
sS'snapshot'
p8
(dp9
S'exception'
p10
(dp11
S'__hash__'
p12
S"<method-wrapper '__hash__' of exceptions.KeyError object>"
p13
sS'__setattr__'
p14
S"<method-wrapper '__setattr__' of exceptions.KeyError object>"
p15
sS'__reduce_ex__'
p16
S'<built-in method __reduce_ex__ of exceptions.KeyError object>'
p17
sS'__getslice__'
p18
S"<method-wrapper '__getslice__' of exceptions.KeyError object>"
p19
sS'__getitem__'
p20
S"<method-wrapper '__getitem__' of exceptions.KeyError object>"
p21
sS'__setstate__'
p22
S'<built-in method __setstate__ of exceptions.KeyError object>'
p23
sS'__reduce__'
p24
S'<built-in method __reduce__ of exceptions.KeyError object>'
p25
sS'__str__'
p26
S"<method-wrapper '__str__' of exceptions.KeyError object>"
p27
sS'__format__'
p28
S'<built-in method __format__ of exceptions.KeyError object>'
p29
sS'__getattribute__'
p30
S"<method-wrapper '__getattribute__' of exceptions.KeyError object>"
p31
sS'__class__'
p32
S"<type 'exceptions.KeyError'>"
p33
sS'__unicode__'
p34
S'<built-in method __unicode__ of exceptions.KeyError object>'
p35
sS'__delattr__'
p36
S"<method-wrapper '__delattr__' of exceptions.KeyError object>"
p37
sS'__subclasshook__'
p38
S'<built-in method __subclasshook__ of type object>'
p39
sS'__repr__'
p40
S"<method-wrapper '__repr__' of exceptions.KeyError object>"
p41
sS'args'
p42
S"('vars',)"
p43
sS'__dict__'
p44
S'{}'
p45
sS'__sizeof__'
p46
S'<built-in method __sizeof__ of exceptions.KeyError object>'
p47
sS'__doc__'
p48
S"'Mapping key not found.'"
p49
sS'__init__'
p50
S"<method-wrapper '__init__' of exceptions.KeyError object>"
p51
sS'__new__'
p52
S'<built-in method __new__ of type object>'
p53
ssS'evalue'
p54
S"'vars'"
p55
sS'request'
p56
cgluon.html
XML_unpickle
p57
(S's\nf\x00\x00<div><table><tr><td style="font-weight:bold;vertical-align:top;">ajax</td><td style="vertical-align:top;">:</td><td><div>False</div></td></tr><tr><td style="font-weight:bold;vertical-align:top;">application</td><td style="vertical-align:top;">:</td><td><div>Project0</div></td></tr><tr><td style="font-weight:bold;vertical-align:top;">args</td><td style="vertical-align:top;">:</td><td><div><table></table></div></td></tr><tr><td style="font-weight:bold;vertical-align:top;">cid</td><td style="vertical-align:top;">:</td><td><div>None</div></td></tr><tr><td style="font-weight:bold;vertical-align:top;">client</td><td style="vertical-align:top;">:</td><td><div>127.0.0.1</div></td></tr><tr><td style="font-weight:bold;vertical-align:top;">controller</td><td style="vertical-align:top;">:</td><td><div>default</div></td></tr><tr><td style="font-weight:bold;vertical-align:top;">cookies</td><td style="vertical-align:top;">:</td><td><div><table><tr><td style="font-weight:bold;vertical-align:top;">session_id_admin</td><td style="vertical-align:top;">:</td><td><div>127.0.0.1-0a0563c2-2cd6-41da-9fbf-fd452a9225eb<table><tr><td style="font-weight:bold;vertical-align:top;">comment</td><td style="vertical-align:top;">:</td><td><div></div></td></tr><tr><td style="font-weight:bold;vertical-align:top;">domain</td><td style="vertical-align:top;">:</td><td><div></div></td></tr><tr><td style="font-weight:bold;vertical-align:top;">expires</td><td style="vertical-align:top;">:</td><td><div></div></td></tr><tr><td style="font-weight:bold;vertical-align:top;">httponly</td><td style="vertical-align:top;">:</td><td><div></div></td></tr><tr><td style="font-weight:bold;vertical-align:top;">max-age</td><td style="vertical-align:top;">:</td><td><div></div></td></tr><tr><td style="font-weight:bold;vertical-align:top;">path</td><td style="vertical-align:top;">:</td><td><div></div></td></tr><tr><td style="font-weight:bold;vertical-align:top;">secure</td><td style="vertical-align:top;">:</td><td><div></div></td></tr><tr><td style="font-weight:bold;vertical-align:top;">version</td><td style="vertical-align:top;">:</td><td><div></div></td></tr></table></div></td></tr><tr><td style="font-weight:bold;vertical-align:top;">session_id_project0</td><td style="vertical-align:top;">:</td><td><div>127.0.0.1-0b0488ee-4af9-4de1-9623-10e8dd0bb962<table><tr><td style="font-weight:bold;vertical-align:top;">comment</td><td style="vertical-align:top;">:</td><td><div></div></td></tr><tr><td style="font-weight:bold;vertical-align:top;">domain</td><td style="vertical-align:top;">:</td><td><div></div></td></tr><tr><td style="font-weight:bold;vertical-align:top;">expires</td><td style="vertical-align:top;">:</td><td><div></div></td></tr><tr><td style="font-weight:bold;vertical-align:top;">httponly</td><td style="vertical-align:top;">:</td><td><div></div></td></tr><tr><td style="font-weight:bold;vertical-align:top;">max-age</td><td style="vertical-align:top;">:</td><td><div></div></td></tr><tr><td style="font-weight:bold;vertical-align:top;">path</td><td style="vertical-align:top;">:</td><td><div></div></td></tr><tr><td style="font-weight:bold;vertical-align:top;">secure</td><td style="vertical-align:top;">:</td><td><div></div></td></tr><tr><td style="font-weight:bold;vertical-align:top;">version</td><td style="vertical-align:top;">:</td><td><div></div></td></tr></table></div></td></tr><tr><td style="font-weight:bold;vertical-align:top;">session_id_welcome</td><td style="vertical-align:top;">:</td><td><div>127.0.0.1-0beee5e7-386c-4f6f-859f-577709ed1ee4<table><tr><td style="font-weight:bold;vertical-align:top;">comment</td><td style="vertical-align:top;">:</td><td><div></div></td></tr><tr><td style="font-weight:bold;vertical-align:top;">domain</td><td style="vertical-align:top;">:</td><td><div></div></td></tr><tr><td style="font-weight:bold;vertical-align:top;">expires</td><td style="vertical-align:top;">:</td><td><div></div></td></tr><tr><td style="font-weight:bold;vertical-align:top;">httponly</td><td style="vertical-align:top;">:</td><td><div></div></td></tr><tr><td style="font-weight:bold;vertical-align:top;">max-age</td><td style="vertical-align:top;">:</td><td><div></div></td></tr><tr><td style="font-weight:bold;vertical-align:top;">path</td><td style="vertical-align:top;">:</td><td><div></div></td></tr><tr><td style="font-weight:bold;vertical-align:top;">secure</td><td style="vertical-align:top;">:</td><td><div></div></td></tr><tr><td style="font-weight:bold;vertical-align:top;">version</td><td style="vertical-align:top;">:</td><td><div></div></td></tr></table></div></td></tr></table></div></td></tr><tr><td style="font-weight:bold;vertical-align:top;">env</td><td style="vertical-align:top;">:</td><td><div><table><tr><td style="font-weight:bold;vertical-align:top;">HTTP_ACCEPT</td><td style="vertical-align:top;">:</td><td><div>text/html,application/xhtml+xml,application/xml;q=0.9,image/webp,image/apng,*/*;q=0.8</div></td></tr><tr><td style="font-weight:bold;vertical-align:top;">HTTP_ACCEPT_ENCODING</td><td style="vertical-align:top;">:</td><td><div>gzip, deflate, br</div></td></tr><tr><td style="font-weight:bold;vertical-align:top;">HTTP_ACCEPT_LANGUAGE</td><td style="vertical-align:top;">:</td><td><div>el-GR,el;q=0.8,en;q=0.6</div></td></tr><tr><td style="font-weight:bold;vertical-align:top;">HTTP_CACHE_CONTROL</td><td style="vertical-align:top;">:</td><td><div>max-age=0</div></td></tr><tr><td style="font-weight:bold;vertical-align:top;">HTTP_CONNECTION</td><td style="vertical-align:top;">:</td><td><div>keep-alive</div></td></tr><tr><td style="font-weight:bold;vertical-align:top;">HTTP_COOKIE</td><td style="vertical-align:top;">:</td><td><div>session_id_welcome=127.0.0.1-0beee5e7-386c-4f6f-859f-577709ed1ee4; session_id_admin=127.0.0.1-0a0563c2-2cd6-41da-9fbf-fd452a9225eb; session_id_project0=127.0.0.1-0b0488ee-4af9-4de1-9623-10e8dd0bb962</div></td></tr><tr><td style="font-weight:bold;vertical-align:top;">HTTP_HOST</td><td style="vertical-align:top;">:</td><td><div>127.0.0.1:8000</div></td></tr><tr><td style="font-weight:bold;vertical-align:top;">HTTP_REFERER</td><td style="vertical-align:top;">:</td><td><div>http://127.0.0.1:8000/Project0/default/create_problem?cons=4&amp;vars=4</div></td></tr><tr><td style="font-weight:bold;vertical-align:top;">HTTP_UPGRADE_INSECURE_REQUESTS</td><td style="vertical-align:top;">:</td><td><div>1</div></td></tr><tr><td style="font-weight:bold;vertical-align:top;">HTTP_USER_AGENT</td><td style="vertical-align:top;">:</td><td><div>Mozilla/5.0 (Windows NT 6.1; Win64; x64) AppleWebKit/537.36 (KHTML, like Gecko) Chrome/59.0.3071.115 Safari/537.36</div></td></tr><tr><td style="font-weight:bold;vertical-align:top;">PATH_INFO</td><td style="vertical-align:top;">:</td><td><div>/Project0/default/solution</div></td></tr><tr><td style="font-weight:bold;vertical-align:top;">QUERY_STRING</td><td style="vertical-align:top;">:</td><td><div>constraints=4&amp;problem=%7B%22c_1x_2%22%3A+-3.0%2C+%22c_1x_3%22%3A+1.0%2C+%22c_2x_1%22%3A+2.0%2C+%22c_1x_1%22%3A+4.0%2C+%22c_2x_2%22%3A+1.0%2C+%22c_2x_3%22%3A+-2.0%2C+%22cotype_3%22%3A+%22%3C%3D%22%2C+%22cotype_2%22%3A+%22%3C%3D%22%2C+%22cotype_1%22%3A+%22%3C%3D%22%2C+%22c_3x_1%22%3A+-3.0%2C+%22x_2%22%3A+27.0%2C+%22x_3%22%3A+23.0%2C+%22x_1%22%3A+19.0%2C+%22b_3%22%3A+5.0%2C+%22probtype%22%3A+%22LpMaximize%22%2C+%22b_2%22%3A+11.0%2C+%22c_3x_3%22%3A+2.0%2C+%22b_1%22%3A+7.0%2C+%22c_3x_2%22%3A+4.0%7D&amp;variables=4</div></td></tr><tr><td style="font-weight:bold;vertical-align:top;">REMOTE_ADDR</td><td style="vertical-align:top;">:</td><td><div>127.0.0.1</div></td></tr><tr><td style="font-weight:bold;vertical-align:top;">REMOTE_PORT</td><td style="vertical-align:top;">:</td><td><div>57252</div></td></tr><tr><td style="font-weight:bold;vertical-align:top;">REQUEST_METHOD</td><td style="vertical-align:top;">:</td><td><div>GET</div></td></tr><tr><td style="font-weight:bold;vertical-align:top;">SCRIPT_NAME</td><td style="vertical-align:top;">:</td><td><div></div></td></tr><tr><td style="font-weight:bold;vertical-align:top;">SERVER_NAME</td><td style="vertical-align:top;">:</td><td><div>Aristos-PC90</div></td></tr><tr><td style="font-weight:bold;vertical-align:top;">SERVER_PORT</td><td style="vertical-align:top;">:</td><td><div>8000</div></td></tr><tr><td style="font-weight:bold;vertical-align:top;">SERVER_PROTOCOL</td><td style="vertical-align:top;">:</td><td><div>HTTP/1.1</div></td></tr><tr><td style="font-weight:bold;vertical-align:top;">SERVER_SOFTWARE</td><td style="vertical-align:top;">:</td><td><div>Rocket 1.2.6</div></td></tr><tr><td style="font-weight:bold;vertical-align:top;">app_folders</td><td style="vertical-align:top;">:</td><td><div>set([&#x27;C:\\\\Users\\\\Aristos\\\\Downloads\\\\web2py_win\\\\web2py\\\\applications\\\\Project0\\\\&#x27;, &#x27;C:\\\\Users\\\\Aristos\\\\Downloads\\\\web2py_win\\\\web2py\\\\applications\\\\admin\\\\&#x27;, &#x27;C:\\\\Users\\\\Aristos\\\\Downloads\\\\web2py_win\\\\web2py\\\\applications\\\\welcome\\\\&#x27;])</div></td></tr><tr><td style="font-weight:bold;vertical-align:top;">applications_parent</td><td style="vertical-align:top;">:</td><td><div>C:\\Users\\Aristos\\Downloads\\web2py_win\\web2py</div></td></tr><tr><td style="font-weight:bold;vertical-align:top;">cmd_args</td><td style="vertical-align:top;">:</td><td><div><table></table></div></td></tr><tr><td style="font-weight:bold;vertical-align:top;">cmd_options</td><td style="vertical-align:top;">:</td><td><div>&lt;Values at 0x2dd4210: {&#x27;verbose&#x27;: False, &#x27;ip&#x27;: &#x27;127.0.0.1&#x27;, &#x27;debuglevel&#x27;: 30, &#x27;with_scheduler&#x27;: False, &#x27;shutdown_timeout&#x27;: 5, &#x27;taskbar&#x27;: False, &#x27;with_coverage&#x27;: False, &#x27;pid_filename&#x27;: &#x27;httpserver.pid&#x27;, &#x27;maxthreads&#x27;: None, &#x27;softcron&#x27;: False, &#x27;server_name&#x27;: &#x27;Aristos-PC90&#x27;, &#x27;bpython&#x27;: False, &#x27;nogui&#x27;: False, &#x27;port&#x27;: 8000, &#x27;print_errors&#x27;: False, &#x27;extcron&#x27;: False, &#x27;runcron&#x27;: False, &#x27;run_system_tests&#x27;: False, &#x27;test&#x27;: None, &#x27;folder&#x27;: &#x27;C:\\\\Users\\\\Aristos\\\\Downloads\\\\web2py_win\\\\web2py&#x27;, &#x27;config&#x27;: &#x27;&#x27;, &#x27;minthreads&#x27;: None, &#x27;shell&#x27;: None, &#x27;run&#x27;: &#x27;&#x27;, &#x27;log_filename&#x27;: &#x27;httpserver.log&#x27;, &#x27;profiler_dir&#x27;: None, &#x27;args&#x27;: [&#x27;&#x27;], &#x27;socket_timeout&#x27;: 5, &#x27;ssl_ca_certificate&#x27;: None, &#x27;scheduler&#x27;: None, &#x27;interfaces&#x27;: None, &#x27;ssl_private_key&#x27;: &#x27;&#x27;, &#x27;gae&#x27;: None, &#x27;password&#x27;: &#x27;******&#x27;, &#x27;request_queue_size&#x27;: 5, &#x27;ssl_certificate&#x27;: &#x27;&#x27;, &#x27;cronjob&#x27;: False, &#x27;numthreads&#x27;: None, &#x27;quiet&#x27;: False, &#x27;import_models&#x27;: False, &#x27;timeout&#x27;: 10, &#x27;plain&#x27;: False, &#x27;nobanner&#x27;: False}&gt;</div></td></tr><tr><td style="font-weight:bold;vertical-align:top;">db_sessions</td><td style="vertical-align:top;">:</td><td><div>set([])</div></td></tr><tr><td style="font-weight:bold;vertical-align:top;">debugging</td><td style="vertical-align:top;">:</td><td><div>False</div></td></tr><tr><td style="font-weight:bold;vertical-align:top;">gluon_parent</td><td style="vertical-align:top;">:</td><td><div>C:\\Users\\Aristos\\Downloads\\web2py_win\\web2py</div></td></tr><tr><td style="font-weight:bold;vertical-align:top;">http_accept</td><td style="vertical-align:top;">:</td><td><div>text/html,application/xhtml+xml,application/xml;q=0.9,image/webp,image/apng,*/*;q=0.8</div></td></tr><tr><td style="font-weight:bold;vertical-align:top;">http_accept_encoding</td><td style="vertical-align:top;">:</td><td><div>gzip, deflate, br</div></td></tr><tr><td style="font-weight:bold;vertical-align:top;">http_accept_language</td><td style="vertical-align:top;">:</td><td><div>el-GR,el;q=0.8,en;q=0.6</div></td></tr><tr><td style="font-weight:bold;vertical-align:top;">http_cache_control</td><td style="vertical-align:top;">:</td><td><div>max-age=0</div></td></tr><tr><td style="font-weight:bold;vertical-align:top;">http_connection</td><td style="vertical-align:top;">:</td><td><div>keep-alive</div></td></tr><tr><td style="font-weight:bold;vertical-align:top;">http_cookie</td><td style="vertical-align:top;">:</td><td><div>session_id_welcome=127.0.0.1-0beee5e7-386c-4f6f-859f-577709ed1ee4; session_id_admin=127.0.0.1-0a0563c2-2cd6-41da-9fbf-fd452a9225eb; session_id_project0=127.0.0.1-0b0488ee-4af9-4de1-9623-10e8dd0bb962</div></td></tr><tr><td style="font-weight:bold;vertical-align:top;">http_host</td><td style="vertical-align:top;">:</td><td><div>127.0.0.1:8000</div></td></tr><tr><td style="font-weight:bold;vertical-align:top;">http_referer</td><td style="vertical-align:top;">:</td><td><div>http://127.0.0.1:8000/Project0/default/create_problem?cons=4&amp;vars=4</div></td></tr><tr><td style="font-weight:bold;vertical-align:top;">http_upgrade_insecure_requests</td><td style="vertical-align:top;">:</td><td><div>1</div></td></tr><tr><td style="font-weight:bold;vertical-align:top;">http_user_agent</td><td style="vertical-align:top;">:</td><td><div>Mozilla/5.0 (Windows NT 6.1; Win64; x64) AppleWebKit/537.36 (KHTML, like Gecko) Chrome/59.0.3071.115 Safari/537.36</div></td></tr><tr><td style="font-weight:bold;vertical-align:top;">is_jython</td><td style="vertical-align:top;">:</td><td><div>False</div></td></tr><tr><td style="font-weight:bold;vertical-align:top;">is_pypy</td><td style="vertical-align:top;">:</td><td><div>False</div></td></tr><tr><td style="font-weight:bold;vertical-align:top;">is_source</td><td style="vertical-align:top;">:</td><td><div>False</div></td></tr><tr><td style="font-weight:bold;vertical-align:top;">local_hosts</td><td style="vertical-align:top;">:</td><td><div><table><tr><td><div>Aristos-PC90.lan</div></td></tr><tr><td><div>fe80::2827:358d:d198:f240%14</div></td></tr><tr><td><div>Aristos-PC90</div></td></tr><tr><td><div>fe80::5163:8db0:407d:cbc7%12</div></td></tr><tr><td><div>::ffff:127.0.0.1</div></td></tr><tr><td><div>::1</div></td></tr><tr><td><div>192.168.10.9</div></td></tr><tr><td><div>2001:0:9d38:90d7:2827:358d:d198:f240</div></td></tr><tr><td><div>127.0.0.1</div></td></tr></table></div></td></tr><tr><td style="font-weight:bold;vertical-align:top;">path_info</td><td style="vertical-align:top;">:</td><td><div>/Project0/default/solution</div></td></tr><tr><td style="font-weight:bold;vertical-align:top;">query_string</td><td style="vertical-align:top;">:</td><td><div>constraints=4&amp;problem=%7B%22c_1x_2%22%3A+-3.0%2C+%22c_1x_3%22%3A+1.0%2C+%22c_2x_1%22%3A+2.0%2C+%22c_1x_1%22%3A+4.0%2C+%22c_2x_2%22%3A+1.0%2C+%22c_2x_3%22%3A+-2.0%2C+%22cotype_3%22%3A+%22%3C%3D%22%2C+%22cotype_2%22%3A+%22%3C%3D%22%2C+%22cotype_1%22%3A+%22%3C%3D%22%2C+%22c_3x_1%22%3A+-3.0%2C+%22x_2%22%3A+27.0%2C+%22x_3%22%3A+23.0%2C+%22x_1%22%3A+19.0%2C+%22b_3%22%3A+5.0%2C+%22probtype%22%3A+%22LpMaximize%22%2C+%22b_2%22%3A+11.0%2C+%22c_3x_3%22%3A+2.0%2C+%22b_1%22%3A+7.0%2C+%22c_3x_2%22%3A+4.0%7D&amp;variables=4</div></td></tr><tr><td style="font-weight:bold;vertical-align:top;">remote_addr</td><td style="vertical-align:top;">:</td><td><div>127.0.0.1</div></td></tr><tr><td style="font-weight:bold;vertical-align:top;">remote_port</td><td style="vertical-align:top;">:</td><td><div>57252</div></td></tr><tr><td style="font-weight:bold;vertical-align:top;">request_method</td><td style="vertical-align:top;">:</td><td><div>GET</div></td></tr><tr><td style="font-weight:bold;vertical-align:top;">request_uri</td><td style="vertical-align:top;">:</td><td><div>/Project0/default/solution?constraints=4&amp;problem=%7B%22c_1x_2%22%3A+-3.0%2C+%22c_1x_3%22%3A+1.0%2C+%22c_2x_1%22%3A+2.0%2C+%22c_1x_1%22%3A+4.0%2C+%22c_2x_2%22%3A+1.0%2C+%22c_2x_3%22%3A+-2.0%2C+%22cotype_3%22%3A+%22%3C%3D%22%2C+%22cotype_2%22%3A+%22%3C%3D%22%2C+%22cotype_1%22%3A+%22%3C%3D%22%2C+%22c_3x_1%22%3A+-3.0%2C+%22x_2%22%3A+27.0%2C+%22x_3%22%3A+23.0%2C+%22x_1%22%3A+19.0%2C+%22b_3%22%3A+5.0%2C+%22probtype%22%3A+%22LpMaximize%22%2C+%22b_2%22%3A+11.0%2C+%22c_3x_3%22%3A+2.0%2C+%22b_1%22%3A+7.0%2C+%22c_3x_2%22%3A+4.0%7D&amp;variables=4</div></td></tr><tr><td style="font-weight:bold;vertical-align:top;">script_name</td><td style="vertical-align:top;">:</td><td><div></div></td></tr><tr><td style="font-weight:bold;vertical-align:top;">server_name</td><td style="vertical-align:top;">:</td><td><div>Aristos-PC90</div></td></tr><tr><td style="font-weight:bold;vertical-align:top;">server_port</td><td style="vertical-align:top;">:</td><td><div>8000</div></td></tr><tr><td style="font-weight:bold;vertical-align:top;">server_protocol</td><td style="vertical-align:top;">:</td><td><div>HTTP/1.1</div></td></tr><tr><td style="font-weight:bold;vertical-align:top;">server_software</td><td style="vertical-align:top;">:</td><td><div>Rocket 1.2.6</div></td></tr><tr><td style="font-weight:bold;vertical-align:top;">web2py_path</td><td style="vertical-align:top;">:</td><td><div>C:\\Users\\Aristos\\Downloads\\web2py_win\\web2py</div></td></tr><tr><td style="font-weight:bold;vertical-align:top;">web2py_version</td><td style="vertical-align:top;">:</td><td><div>2.14.6-stable+timestamp.2016.05.10.00.21.47</div></td></tr><tr><td style="font-weight:bold;vertical-align:top;">wsgi.errors</td><td style="vertical-align:top;">:</td><td><div>&lt;open file &#x27;&lt;stderr&gt;&#x27;, mode &#x27;w&#x27; at 0x002FD0D0&gt;</div></td></tr><tr><td style="font-weight:bold;vertical-align:top;">wsgi.file_wrapper</td><td style="vertical-align:top;">:</td><td><div>&lt;class wsgiref.util.FileWrapper at 0x0376B148&gt;</div></td></tr><tr><td style="font-weight:bold;vertical-align:top;">wsgi.input</td><td style="vertical-align:top;">:</td><td><div>&lt;socket._fileobject object at 0x04156870&gt;</div></td></tr><tr><td style="font-weight:bold;vertical-align:top;">wsgi.multiprocess</td><td style="vertical-align:top;">:</td><td><div>False</div></td></tr><tr><td style="font-weight:bold;vertical-align:top;">wsgi.multithread</td><td style="vertical-align:top;">:</td><td><div>True</div></td></tr><tr><td style="font-weight:bold;vertical-align:top;">wsgi.run_once</td><td style="vertical-align:top;">:</td><td><div>False</div></td></tr><tr><td style="font-weight:bold;vertical-align:top;">wsgi.url_scheme</td><td style="vertical-align:top;">:</td><td><div>http</div></td></tr><tr><td style="font-weight:bold;vertical-align:top;">wsgi.version</td><td style="vertical-align:top;">:</td><td><div><table><tr><td><div>1</div></td></tr><tr><td><div>0</div></td></tr></table></div></td></tr><tr><td style="font-weight:bold;vertical-align:top;">wsgi_errors</td><td style="vertical-align:top;">:</td><td><div>&lt;open file &#x27;&lt;stderr&gt;&#x27;, mode &#x27;w&#x27; at 0x002FD0D0&gt;</div></td></tr><tr><td style="font-weight:bold;vertical-align:top;">wsgi_file_wrapper</td><td style="vertical-align:top;">:</td><td><div>&lt;class wsgiref.util.FileWrapper at 0x0376B148&gt;</div></td></tr><tr><td style="font-weight:bold;vertical-align:top;">wsgi_input</td><td style="vertical-align:top;">:</td><td><div>&lt;socket._fileobject object at 0x04156870&gt;</div></td></tr><tr><td style="font-weight:bold;vertical-align:top;">wsgi_multiprocess</td><td style="vertical-align:top;">:</td><td><div>False</div></td></tr><tr><td style="font-weight:bold;vertical-align:top;">wsgi_multithread</td><td style="vertical-align:top;">:</td><td><div>True</div></td></tr><tr><td style="font-weight:bold;vertical-align:top;">wsgi_run_once</td><td style="vertical-align:top;">:</td><td><div>False</div></td></tr><tr><td style="font-weight:bold;vertical-align:top;">wsgi_url_scheme</td><td style="vertical-align:top;">:</td><td><div>http</div></td></tr><tr><td style="font-weight:bold;vertical-align:top;">wsgi_version</td><td style="vertical-align:top;">:</td><td><div><table><tr><td><div>1</div></td></tr><tr><td><div>0</div></td></tr></table></div></td></tr></table></div></td></tr><tr><td style="font-weight:bold;vertical-align:top;">extension</td><td style="vertical-align:top;">:</td><td><div>html</div></td></tr><tr><td style="font-weight:bold;vertical-align:top;">folder</td><td style="vertical-align:top;">:</td><td><div>C:\\Users\\Aristos\\Downloads\\web2py_win\\web2py\\applications\\Project0\\</div></td></tr><tr><td style="font-weight:bold;vertical-align:top;">function</td><td style="vertical-align:top;">:</td><td><div>solution</div></td></tr><tr><td style="font-weight:bold;vertical-align:top;">global_settings</td><td style="vertical-align:top;">:</td><td><div><table><tr><td style="font-weight:bold;vertical-align:top;">app_folders</td><td style="vertical-align:top;">:</td><td><div>set([&#x27;C:\\\\Users\\\\Aristos\\\\Downloads\\\\web2py_win\\\\web2py\\\\applications\\\\Project0\\\\&#x27;, &#x27;C:\\\\Users\\\\Aristos\\\\Downloads\\\\web2py_win\\\\web2py\\\\applications\\\\admin\\\\&#x27;, &#x27;C:\\\\Users\\\\Aristos\\\\Downloads\\\\web2py_win\\\\web2py\\\\applications\\\\welcome\\\\&#x27;])</div></td></tr><tr><td style="font-weight:bold;vertical-align:top;">applications_parent</td><td style="vertical-align:top;">:</td><td><div>C:\\Users\\Aristos\\Downloads\\web2py_win\\web2py</div></td></tr><tr><td style="font-weight:bold;vertical-align:top;">cmd_args</td><td style="vertical-align:top;">:</td><td><div><table></table></div></td></tr><tr><td style="font-weight:bold;vertical-align:top;">cmd_options</td><td style="vertical-align:top;">:</td><td><div>&lt;Values at 0x2dd4210: {&#x27;verbose&#x27;: False, &#x27;ip&#x27;: &#x27;127.0.0.1&#x27;, &#x27;debuglevel&#x27;: 30, &#x27;with_scheduler&#x27;: False, &#x27;shutdown_timeout&#x27;: 5, &#x27;taskbar&#x27;: False, &#x27;with_coverage&#x27;: False, &#x27;pid_filename&#x27;: &#x27;httpserver.pid&#x27;, &#x27;maxthreads&#x27;: None, &#x27;softcron&#x27;: False, &#x27;server_name&#x27;: &#x27;Aristos-PC90&#x27;, &#x27;bpython&#x27;: False, &#x27;nogui&#x27;: False, &#x27;port&#x27;: 8000, &#x27;print_errors&#x27;: False, &#x27;extcron&#x27;: False, &#x27;runcron&#x27;: False, &#x27;run_system_tests&#x27;: False, &#x27;test&#x27;: None, &#x27;folder&#x27;: &#x27;C:\\\\Users\\\\Aristos\\\\Downloads\\\\web2py_win\\\\web2py&#x27;, &#x27;config&#x27;: &#x27;&#x27;, &#x27;minthreads&#x27;: None, &#x27;shell&#x27;: None, &#x27;run&#x27;: &#x27;&#x27;, &#x27;log_filename&#x27;: &#x27;httpserver.log&#x27;, &#x27;profiler_dir&#x27;: None, &#x27;args&#x27;: [&#x27;&#x27;], &#x27;socket_timeout&#x27;: 5, &#x27;ssl_ca_certificate&#x27;: None, &#x27;scheduler&#x27;: None, &#x27;interfaces&#x27;: None, &#x27;ssl_private_key&#x27;: &#x27;&#x27;, &#x27;gae&#x27;: None, &#x27;password&#x27;: &#x27;******&#x27;, &#x27;request_queue_size&#x27;: 5, &#x27;ssl_certificate&#x27;: &#x27;&#x27;, &#x27;cronjob&#x27;: False, &#x27;numthreads&#x27;: None, &#x27;quiet&#x27;: False, &#x27;import_models&#x27;: False, &#x27;timeout&#x27;: 10, &#x27;plain&#x27;: False, &#x27;nobanner&#x27;: False}&gt;</div></td></tr><tr><td style="font-weight:bold;vertical-align:top;">db_sessions</td><td style="vertical-align:top;">:</td><td><div>set([])</div></td></tr><tr><td style="font-weight:bold;vertical-align:top;">debugging</td><td style="vertical-align:top;">:</td><td><div>False</div></td></tr><tr><td style="font-weight:bold;vertical-align:top;">gluon_parent</td><td style="vertical-align:top;">:</td><td><div>C:\\Users\\Aristos\\Downloads\\web2py_win\\web2py</div></td></tr><tr><td style="font-weight:bold;vertical-align:top;">is_jython</td><td style="vertical-align:top;">:</td><td><div>False</div></td></tr><tr><td style="font-weight:bold;vertical-align:top;">is_pypy</td><td style="vertical-align:top;">:</td><td><div>False</div></td></tr><tr><td style="font-weight:bold;vertical-align:top;">is_source</td><td style="vertical-align:top;">:</td><td><div>False</div></td></tr><tr><td style="font-weight:bold;vertical-align:top;">local_hosts</td><td style="vertical-align:top;">:</td><td><div><table><tr><td><div>Aristos-PC90.lan</div></td></tr><tr><td><div>fe80::2827:358d:d198:f240%14</div></td></tr><tr><td><div>Aristos-PC90</div></td></tr><tr><td><div>fe80::5163:8db0:407d:cbc7%12</div></td></tr><tr><td><div>::ffff:127.0.0.1</div></td></tr><tr><td><div>::1</div></td></tr><tr><td><div>192.168.10.9</div></td></tr><tr><td><div>2001:0:9d38:90d7:2827:358d:d198:f240</div></td></tr><tr><td><div>127.0.0.1</div></td></tr></table></div></td></tr><tr><td style="font-weight:bold;vertical-align:top;">web2py_version</td><td style="vertical-align:top;">:</td><td><div>2.14.6-stable+timestamp.2016.05.10.00.21.47</div></td></tr></table></div></td></tr><tr><td style="font-weight:bold;vertical-align:top;">is_https</td><td style="vertical-align:top;">:</td><td><div>False</div></td></tr><tr><td style="font-weight:bold;vertical-align:top;">is_local</td><td style="vertical-align:top;">:</td><td><div>True</div></td></tr><tr><td style="font-weight:bold;vertical-align:top;">is_restful</td><td style="vertical-align:top;">:</td><td><div>False</div></td></tr><tr><td style="font-weight:bold;vertical-align:top;">is_scheduler</td><td style="vertical-align:top;">:</td><td><div>False</div></td></tr><tr><td style="font-weight:bold;vertical-align:top;">is_shell</td><td style="vertical-align:top;">:</td><td><div>False</div></td></tr><tr><td style="font-weight:bold;vertical-align:top;">now</td><td style="vertical-align:top;">:</td><td><div>datetime.datetime(2017, 6, 30, 21, 57, 2, 373000)</div></td></tr><tr><td style="font-weight:bold;vertical-align:top;">raw_args</td><td style="vertical-align:top;">:</td><td><div></div></td></tr><tr><td style="font-weight:bold;vertical-align:top;">raw_extension</td><td style="vertical-align:top;">:</td><td><div>None</div></td></tr><tr><td style="font-weight:bold;vertical-align:top;">url</td><td style="vertical-align:top;">:</td><td><div>/Project0/default/solution</div></td></tr><tr><td style="font-weight:bold;vertical-align:top;">utcnow</td><td style="vertical-align:top;">:</td><td><div>datetime.datetime(2017, 6, 30, 18, 57, 2, 373000)</div></td></tr><tr><td style="font-weight:bold;vertical-align:top;">wsgi</td><td style="vertical-align:top;">:</td><td><div>&lt;gluon.main.LazyWSGI object at 0x0417BFD0&gt;</div></td></tr></table></div>'
tRp58
sS'frames'
p59
(lp60
(dp61
S'file'
p62
S'C:\\Users\\Aristos\\Downloads\\web2py_win\\web2py\\gluon\\restricted.py'
p63
sS'dump'
p64
(dp65
S'environment'
p66
S"{'A': <class 'gluon.html.A'>, 'ANY_OF': <class 'gluon.validators.ANY_OF'>, 'ASSIGNJS': <function ASSIGNJS>, 'AppConfig': <function AppConfig>, 'Auth': <class 'gluon.tools.Auth'>, 'B': <class 'gluon.html.B'>, 'BEAUTIFY': <class 'gluon.html.BEAUTIFY'>, 'BODY': <class 'gluon.html.BODY'>, 'BR': <class 'gluon.html.BR'>, 'BUTTON': <class 'gluon.html.BUTTON'>, ...}"
p67
sS'ccode'
p68
S'<code object <module> at 040368D8, file "C:\\User...ations\\Project0\\controllers/default.py", line 12>'
p69
ssS'lnum'
p70
I227
sS'lines'
p71
(dp72
I224
S'            ccode = code'
p73
sI225
S'        else:'
p74
sI226
S'            ccode = compile2(code, layer)'
p75
sI227
S'        exec ccode in environment'
p76
sI228
S'    except HTTP:'
p77
sI229
S'        raise'
p78
sI230
S'    except RestrictedError:'
p79
sI231
S'        # do not encapsulate (obfuscate) the original RestrictedError'
p80
sI222
S'    try:'
p81
sI223
S'        if isinstance(code, types.CodeType):'
p82
ssS'call'
p83
S'(code="    # -*- coding: utf-8 -*-\\n# this file is relea...e\'])\\n\\n\\nresponse._vars=response._caller(solution)\\n", environment={\'A\': <class \'gluon.html.A\'>, \'ANY_OF\': <class \'gluon.validators.ANY_OF\'>, \'ASSIGNJS\': <function ASSIGNJS>, \'AppConfig\': <function AppConfig>, \'Auth\': <class \'gluon.tools.Auth\'>, \'B\': <class \'gluon.html.B\'>, \'BEAUTIFY\': <class \'gluon.html.BEAUTIFY\'>, \'BODY\': <class \'gluon.html.BODY\'>, \'BR\': <class \'gluon.html.BR\'>, \'BUTTON\': <class \'gluon.html.BUTTON\'>, ...}, layer=r\'C:\\Users\\Aristos\\Downloads\\web2py_win\\web2py\\applications\\Project0\\controllers/default.py\')'
p84
sS'func'
p85
S'restricted'
p86
sa(dp87
g62
S'C:\\Users\\Aristos\\Downloads\\web2py_win\\web2py\\applications\\Project0\\controllers\\default.py'
p88
sg64
(dp89
sg70
I228
sg71
(dp90
I224
S''
sI225
S"    return dict(result='Feasible',example=tree_data,best_node=best_node['node'])"
p91
sI226
S''
sI217
S'                temp_list=[{\'v\':node_list[node].identifier,\'f\':\'<div style="font-size:0.8em">{new}</div>{obj}\'.format(new=node_list[node].data[\'new_constraint\'],obj=node_list[node].data[\'result\'][\'obj\'])},tree.parent(node_list[node].identifier).identifier,\'\']'
p92
sI218
S'            else:'
p93
sI219
S'                temp_list=[{\'v\':node_list[node].identifier,\'f\':\'<div style="font-size:0.8em">{new}</div>z={obj}<div style="color:red; font-style:italic">{vars}</div>\'.format(new=node_list[node].data[\'new_constraint\'],obj=node_list[node].data[\'result\'][\'obj\'], vars=node_list[node].data[\'result\'][\'vars\'])},tree.parent(node_list[node].identifier).identifier,\'\']'
p94
sI220
S''
sI221
S'        else:'
p95
sI222
S'            temp_list=[{\'v\':node_list[node].identifier,\'f\':\'z={obj}<div style="color:red; font-style:italic">{vars}</div>\'.format(obj=node_list[node].data[\'result\'][\'obj\'],vars=node_list[node].data[\'result\'][\'vars\'])},\'\',\'\']'
p96
sI223
S'        tree_data.append(temp_list)'
p97
ssg83
S'()'
p98
sg85
S'<module>'
p99
sa(dp100
g62
S'C:\\Users\\Aristos\\Downloads\\web2py_win\\web2py\\gluon\\globals.py'
p101
sg64
(dp102
S'self'
p103
S'undefined'
p104
sS'f'
S'<function solution>'
p105
ssg70
I417
sg71
(dp106
I416
S'        self._vars = None'
p107
sI417
S'        self._caller = lambda f: f()'
p108
sI418
S'        self._view_environment = None'
p109
sI419
S'        self._custom_commit = None'
p110
sI420
S'        self._custom_rollback = None'
p111
sI421
S"        self.generic_patterns = ['*']"
p112
sI412
S"        self.flash = ''            # used by the default view layout"
p113
sI413
S'        self.meta = Storage()      # used by web2py_ajax.html'
p114
sI414
S'        self.menu = []             # used by the default view layout'
p115
sI415
S'        self.files = []            # used by web2py_ajax.html'
p116
ssg83
S'(f=<function solution>)'
p117
sg85
S'<lambda>'
p118
sa(dp119
g62
S'C:\\Users\\Aristos\\Downloads\\web2py_win\\web2py\\applications\\Project0\\controllers\\default.py'
p120
sg64
(dp121
S'prob.solve'
p122
S'<bound method LpProblem.solve of Branch & Bound:...ES\nx_1 Continuous\nx_2 Continuous\nx_3 Continuous\n>'
p123
sS'prob'
p124
S'Branch & Bound:\nMAXIMIZE\n19.0*x_1 + 27.0*x_2 + 2...LES\nx_1 Continuous\nx_2 Continuous\nx_3 Continuous\n'
p125
ssg70
I107
sg71
(dp126
I102
S"    best_node['node']='none'"
p127
sI103
S"    best_node['limit']=-float('inf')"
p128
sI104
S'    non_int_variables=[] #non int variables of current problem'
p129
sI105
S'    solution=True'
p130
sI106
S'    for v in prob.variables():'
p131
sI107
S"        Result['vars'][v.name]='{var}={value}'.format(var=v.name,value=v.varValue)"
p132
sI108
S'        if not Result[v.name].is_integer():'
p133
sI109
S'            solution=False  # We find that there is a non-integer variable'
p134
sI110
S'            non_int_variables.append(v.name)'
p135
sI111
S'    if solution==True: # All variables in the solution are integers so we have the solution'
p136
ssg83
S'()'
p137
sg85
S'solution'
p138
sasS'pyver'
p139
S'Python 2.7.9: C:\\Users\\Aristos\\Downloads\\web2py_win\\web2py\\web2py.exe (prefix: C:\\Python27)'
p140
sS'session'
p141
g57
(S's\x1a\x00\x00\x00<div><table></table></div>'
tRp142
sS'etype'
p143
S"<type 'exceptions.KeyError'>"
p144
sS'date'
p145
S'Fri Jun 30 21:57:02 2017'
p146
sS'response'
p147
g57
(S's\xa5?\x00\x00<div><table><tr><td style="font-weight:bold;vertical-align:top;">body</td><td style="vertical-align:top;">:</td><td><div>&lt;cStringIO.StringO object at 0x0417BC20&gt;</div></td></tr><tr><td style="font-weight:bold;vertical-align:top;">cookies</td><td style="vertical-align:top;">:</td><td><div><table><tr><td style="font-weight:bold;vertical-align:top;">session_id_project0</td><td style="vertical-align:top;">:</td><td><div>127.0.0.1-0b0488ee-4af9-4de1-9623-10e8dd0bb962<table><tr><td style="font-weight:bold;vertical-align:top;">comment</td><td style="vertical-align:top;">:</td><td><div></div></td></tr><tr><td style="font-weight:bold;vertical-align:top;">domain</td><td style="vertical-align:top;">:</td><td><div></div></td></tr><tr><td style="font-weight:bold;vertical-align:top;">expires</td><td style="vertical-align:top;">:</td><td><div></div></td></tr><tr><td style="font-weight:bold;vertical-align:top;">httponly</td><td style="vertical-align:top;">:</td><td><div></div></td></tr><tr><td style="font-weight:bold;vertical-align:top;">max-age</td><td style="vertical-align:top;">:</td><td><div></div></td></tr><tr><td style="font-weight:bold;vertical-align:top;">path</td><td style="vertical-align:top;">:</td><td><div>/</div></td></tr><tr><td style="font-weight:bold;vertical-align:top;">secure</td><td style="vertical-align:top;">:</td><td><div></div></td></tr><tr><td style="font-weight:bold;vertical-align:top;">version</td><td style="vertical-align:top;">:</td><td><div></div></td></tr></table></div></td></tr></table></div></td></tr><tr><td style="font-weight:bold;vertical-align:top;">delimiters</td><td style="vertical-align:top;">:</td><td><div><table><tr><td><div>{{</div></td></tr><tr><td><div>}}</div></td></tr></table></div></td></tr><tr><td style="font-weight:bold;vertical-align:top;">files</td><td style="vertical-align:top;">:</td><td><div><table></table></div></td></tr><tr><td style="font-weight:bold;vertical-align:top;">flash</td><td style="vertical-align:top;">:</td><td><div></div></td></tr><tr><td style="font-weight:bold;vertical-align:top;">form_label_separator</td><td style="vertical-align:top;">:</td><td><div></div></td></tr><tr><td style="font-weight:bold;vertical-align:top;">formstyle</td><td style="vertical-align:top;">:</td><td><div>bootstrap3_inline</div></td></tr><tr><td style="font-weight:bold;vertical-align:top;">generic_patterns</td><td style="vertical-align:top;">:</td><td><div><table><tr><td><div>*</div></td></tr></table></div></td></tr><tr><td style="font-weight:bold;vertical-align:top;">google_analytics_id</td><td style="vertical-align:top;">:</td><td><div>None</div></td></tr><tr><td style="font-weight:bold;vertical-align:top;">headers</td><td style="vertical-align:top;">:</td><td><div><table><tr><td style="font-weight:bold;vertical-align:top;">X-Powered-By</td><td style="vertical-align:top;">:</td><td><div>web2py</div></td></tr></table></div></td></tr><tr><td style="font-weight:bold;vertical-align:top;">logo</td><td style="vertical-align:top;">:</td><td><div><a class="navbar-brand" href="http://www.web2py.com/" id="web2py-logo"><b>web<span>2</span>py</b>&trade;&nbsp;</a></div></td></tr><tr><td style="font-weight:bold;vertical-align:top;">menu</td><td style="vertical-align:top;">:</td><td><div><table><tr><td><div><table><tr><td><div>Home</div></td></tr><tr><td><div>False</div></td></tr><tr><td><div>/Project0/default/index</div></td></tr><tr><td><div><table></table></div></td></tr></table></div></td></tr><tr><td><div><table><tr><td><div>My Sites</div></td></tr><tr><td><div>False</div></td></tr><tr><td><div>/admin/default/site</div></td></tr></table></div></td></tr><tr><td><div><table><tr><td><div>This App</div></td></tr><tr><td><div>False</div></td></tr><tr><td><div>#</div></td></tr><tr><td><div><table><tr><td><div><table><tr><td><div>Design</div></td></tr><tr><td><div>False</div></td></tr><tr><td><div>/admin/default/design/Project0</div></td></tr></table></div></td></tr><tr><td><div><li class="divider"></li></div></td></tr><tr><td><div><table><tr><td><div>Controller</div></td></tr><tr><td><div>False</div></td></tr><tr><td><div>/admin/default/edit/Project0/controllers/default.py</div></td></tr></table></div></td></tr><tr><td><div><table><tr><td><div>View</div></td></tr><tr><td><div>False</div></td></tr><tr><td><div>/admin/default/edit/Project0/views/default/solution.html</div></td></tr></table></div></td></tr><tr><td><div><table><tr><td><div>DB Model</div></td></tr><tr><td><div>False</div></td></tr><tr><td><div>/admin/default/edit/Project0/models/db.py</div></td></tr></table></div></td></tr><tr><td><div><table><tr><td><div>Menu Model</div></td></tr><tr><td><div>False</div></td></tr><tr><td><div>/admin/default/edit/Project0/models/menu.py</div></td></tr></table></div></td></tr><tr><td><div><table><tr><td><div>Config.ini</div></td></tr><tr><td><div>False</div></td></tr><tr><td><div>/admin/default/edit/Project0/private/appconfig.ini</div></td></tr></table></div></td></tr><tr><td><div><table><tr><td><div>Layout</div></td></tr><tr><td><div>False</div></td></tr><tr><td><div>/admin/default/edit/Project0/views/layout.html</div></td></tr></table></div></td></tr><tr><td><div><table><tr><td><div>Stylesheet</div></td></tr><tr><td><div>False</div></td></tr><tr><td><div>/admin/default/edit/Project0/static/css/web2py-bootstrap3.css</div></td></tr></table></div></td></tr><tr><td><div><table><tr><td><div>Database</div></td></tr><tr><td><div>False</div></td></tr><tr><td><div>/Project0/appadmin/index</div></td></tr></table></div></td></tr><tr><td><div><table><tr><td><div>Errors</div></td></tr><tr><td><div>False</div></td></tr><tr><td><div>/admin/default/errors/Project0</div></td></tr></table></div></td></tr><tr><td><div><table><tr><td><div>About</div></td></tr><tr><td><div>False</div></td></tr><tr><td><div>/admin/default/about/Project0</div></td></tr></table></div></td></tr></table></div></td></tr></table></div></td></tr><tr><td><div><table><tr><td><div>web2py.com</div></td></tr><tr><td><div>False</div></td></tr><tr><td><div>#</div></td></tr><tr><td><div><table><tr><td><div><table><tr><td><div>Download</div></td></tr><tr><td><div>False</div></td></tr><tr><td><div>http://www.web2py.com/examples/default/download</div></td></tr></table></div></td></tr><tr><td><div><table><tr><td><div>Support</div></td></tr><tr><td><div>False</div></td></tr><tr><td><div>http://www.web2py.com/examples/default/support</div></td></tr></table></div></td></tr><tr><td><div><table><tr><td><div>Demo</div></td></tr><tr><td><div>False</div></td></tr><tr><td><div>http://web2py.com/demo_admin</div></td></tr></table></div></td></tr><tr><td><div><table><tr><td><div>Quick Examples</div></td></tr><tr><td><div>False</div></td></tr><tr><td><div>http://web2py.com/examples/default/examples</div></td></tr></table></div></td></tr><tr><td><div><table><tr><td><div>FAQ</div></td></tr><tr><td><div>False</div></td></tr><tr><td><div>http://web2py.com/AlterEgo</div></td></tr></table></div></td></tr><tr><td><div><table><tr><td><div>Videos</div></td></tr><tr><td><div>False</div></td></tr><tr><td><div>http://www.web2py.com/examples/default/videos/</div></td></tr></table></div></td></tr><tr><td><div><table><tr><td><div>Free Applications</div></td></tr><tr><td><div>False</div></td></tr><tr><td><div>http://web2py.com/appliances</div></td></tr></table></div></td></tr><tr><td><div><table><tr><td><div>Plugins</div></td></tr><tr><td><div>False</div></td></tr><tr><td><div>http://web2py.com/plugins</div></td></tr></table></div></td></tr><tr><td><div><table><tr><td><div>Recipes</div></td></tr><tr><td><div>False</div></td></tr><tr><td><div>http://web2pyslices.com/</div></td></tr></table></div></td></tr></table></div></td></tr></table></div></td></tr><tr><td><div><table><tr><td><div>Documentation</div></td></tr><tr><td><div>False</div></td></tr><tr><td><div>#</div></td></tr><tr><td><div><table><tr><td><div><table><tr><td><div>Online book</div></td></tr><tr><td><div>False</div></td></tr><tr><td><div>http://www.web2py.com/book</div></td></tr></table></div></td></tr><tr><td><div><li class="divider"></li></div></td></tr><tr><td><div><table><tr><td><div>Preface</div></td></tr><tr><td><div>False</div></td></tr><tr><td><div>http://www.web2py.com/book/default/chapter/00</div></td></tr></table></div></td></tr><tr><td><div><table><tr><td><div>Introduction</div></td></tr><tr><td><div>False</div></td></tr><tr><td><div>http://www.web2py.com/book/default/chapter/01</div></td></tr></table></div></td></tr><tr><td><div><table><tr><td><div>Python</div></td></tr><tr><td><div>False</div></td></tr><tr><td><div>http://www.web2py.com/book/default/chapter/02</div></td></tr></table></div></td></tr><tr><td><div><table><tr><td><div>Overview</div></td></tr><tr><td><div>False</div></td></tr><tr><td><div>http://www.web2py.com/book/default/chapter/03</div></td></tr></table></div></td></tr><tr><td><div><table><tr><td><div>The Core</div></td></tr><tr><td><div>False</div></td></tr><tr><td><div>http://www.web2py.com/book/default/chapter/04</div></td></tr></table></div></td></tr><tr><td><div><table><tr><td><div>The Views</div></td></tr><tr><td><div>False</div></td></tr><tr><td><div>http://www.web2py.com/book/default/chapter/05</div></td></tr></table></div></td></tr><tr><td><div><table><tr><td><div>Database</div></td></tr><tr><td><div>False</div></td></tr><tr><td><div>http://www.web2py.com/book/default/chapter/06</div></td></tr></table></div></td></tr><tr><td><div><table><tr><td><div>Forms and Validators</div></td></tr><tr><td><div>False</div></td></tr><tr><td><div>http://www.web2py.com/book/default/chapter/07</div></td></tr></table></div></td></tr><tr><td><div><table><tr><td><div>Email and SMS</div></td></tr><tr><td><div>False</div></td></tr><tr><td><div>http://www.web2py.com/book/default/chapter/08</div></td></tr></table></div></td></tr><tr><td><div><table><tr><td><div>Access Control</div></td></tr><tr><td><div>False</div></td></tr><tr><td><div>http://www.web2py.com/book/default/chapter/09</div></td></tr></table></div></td></tr><tr><td><div><table><tr><td><div>Services</div></td></tr><tr><td><div>False</div></td></tr><tr><td><div>http://www.web2py.com/book/default/chapter/10</div></td></tr></table></div></td></tr><tr><td><div><table><tr><td><div>Ajax Recipes</div></td></tr><tr><td><div>False</div></td></tr><tr><td><div>http://www.web2py.com/book/default/chapter/11</div></td></tr></table></div></td></tr><tr><td><div><table><tr><td><div>Components and Plugins</div></td></tr><tr><td><div>False</div></td></tr><tr><td><div>http://www.web2py.com/book/default/chapter/12</div></td></tr></table></div></td></tr><tr><td><div><table><tr><td><div>Deployment Recipes</div></td></tr><tr><td><div>False</div></td></tr><tr><td><div>http://www.web2py.com/book/default/chapter/13</div></td></tr></table></div></td></tr><tr><td><div><table><tr><td><div>Other Recipes</div></td></tr><tr><td><div>False</div></td></tr><tr><td><div>http://www.web2py.com/book/default/chapter/14</div></td></tr></table></div></td></tr><tr><td><div><table><tr><td><div>Helping web2py</div></td></tr><tr><td><div>False</div></td></tr><tr><td><div>http://www.web2py.com/book/default/chapter/15</div></td></tr></table></div></td></tr><tr><td><div><table><tr><td><div>Buy web2py\'s book</div></td></tr><tr><td><div>False</div></td></tr><tr><td><div>http://stores.lulu.com/web2py</div></td></tr></table></div></td></tr></table></div></td></tr></table></div></td></tr><tr><td><div><table><tr><td><div>Community</div></td></tr><tr><td><div>False</div></td></tr><tr><td><div>None</div></td></tr><tr><td><div><table><tr><td><div><table><tr><td><div>Groups</div></td></tr><tr><td><div>False</div></td></tr><tr><td><div>http://www.web2py.com/examples/default/usergroups</div></td></tr></table></div></td></tr><tr><td><div><table><tr><td><div>Twitter</div></td></tr><tr><td><div>False</div></td></tr><tr><td><div>http://twitter.com/web2py</div></td></tr></table></div></td></tr><tr><td><div><table><tr><td><div>Live Chat</div></td></tr><tr><td><div>False</div></td></tr><tr><td><div>http://webchat.freenode.net/?channels=web2py</div></td></tr></table></div></td></tr></table></div></td></tr></table></div></td></tr></table></div></td></tr><tr><td style="font-weight:bold;vertical-align:top;">meta</td><td style="vertical-align:top;">:</td><td><div><table><tr><td style="font-weight:bold;vertical-align:top;">author</td><td style="vertical-align:top;">:</td><td><div>Your Name &lt;you@example.com&gt;</div></td></tr><tr><td style="font-weight:bold;vertical-align:top;">description</td><td style="vertical-align:top;">:</td><td><div>a cool new app</div></td></tr><tr><td style="font-weight:bold;vertical-align:top;">generator</td><td style="vertical-align:top;">:</td><td><div>Web2py Web Framework</div></td></tr><tr><td style="font-weight:bold;vertical-align:top;">keywords</td><td style="vertical-align:top;">:</td><td><div><table><tr><td><div>web2py</div></td></tr><tr><td><div>python</div></td></tr><tr><td><div>framework</div></td></tr></table></div></td></tr></table></div></td></tr><tr><td style="font-weight:bold;vertical-align:top;">models_to_run</td><td style="vertical-align:top;">:</td><td><div><table><tr><td><div>^\\w+\\.py$</div></td></tr><tr><td><div>^default/\\w+\\.py$</div></td></tr><tr><td><div>^default/solution/\\w+\\.py$</div></td></tr></table></div></td></tr><tr><td style="font-weight:bold;vertical-align:top;">postprocessing</td><td style="vertical-align:top;">:</td><td><div><table></table></div></td></tr><tr><td style="font-weight:bold;vertical-align:top;">session_client</td><td style="vertical-align:top;">:</td><td><div>127.0.0.1</div></td></tr><tr><td style="font-weight:bold;vertical-align:top;">session_cookie_compression_level</td><td style="vertical-align:top;">:</td><td><div>None</div></td></tr><tr><td style="font-weight:bold;vertical-align:top;">session_cookie_expires</td><td style="vertical-align:top;">:</td><td><div>None</div></td></tr><tr><td style="font-weight:bold;vertical-align:top;">session_data_name</td><td style="vertical-align:top;">:</td><td><div>session_data_project0</div></td></tr><tr><td style="font-weight:bold;vertical-align:top;">session_file</td><td style="vertical-align:top;">:</td><td><div>&lt;open file &#x27;C:\\\\Users\\\\Aristos\\\\Downloads\\\\web2py_win\\\\web2py\\\\applications\\\\Project0\\\\sessions\\\\112\\\\0e7\\\\127.0.0.1-0b0488ee-4af9-4de1-9623-10e8dd0bb962&#x27;, mode &#x27;rb+&#x27; at 0x044810D0&gt;</div></td></tr><tr><td style="font-weight:bold;vertical-align:top;">session_filename</td><td style="vertical-align:top;">:</td><td><div>C:\\Users\\Aristos\\Downloads\\web2py_win\\web2py\\applications\\Project0\\sessions\\127.0.0.1-0b0488ee-4af9-4de1-9623-10e8dd0bb962</div></td></tr><tr><td style="font-weight:bold;vertical-align:top;">session_hash</td><td style="vertical-align:top;">:</td><td><div>bc3af96caa43c9e775fa50659743d154</div></td></tr><tr><td style="font-weight:bold;vertical-align:top;">session_id</td><td style="vertical-align:top;">:</td><td><div>127.0.0.1-0b0488ee-4af9-4de1-9623-10e8dd0bb962</div></td></tr><tr><td style="font-weight:bold;vertical-align:top;">session_id_name</td><td style="vertical-align:top;">:</td><td><div>session_id_project0</div></td></tr><tr><td style="font-weight:bold;vertical-align:top;">session_locked</td><td style="vertical-align:top;">:</td><td><div>True</div></td></tr><tr><td style="font-weight:bold;vertical-align:top;">session_masterapp</td><td style="vertical-align:top;">:</td><td><div>Project0</div></td></tr><tr><td style="font-weight:bold;vertical-align:top;">session_new</td><td style="vertical-align:top;">:</td><td><div>False</div></td></tr><tr><td style="font-weight:bold;vertical-align:top;">session_storage_type</td><td style="vertical-align:top;">:</td><td><div>file</div></td></tr><tr><td style="font-weight:bold;vertical-align:top;">status</td><td style="vertical-align:top;">:</td><td><div>200</div></td></tr><tr><td style="font-weight:bold;vertical-align:top;">subtitle</td><td style="vertical-align:top;">:</td><td><div></div></td></tr><tr><td style="font-weight:bold;vertical-align:top;">title</td><td style="vertical-align:top;">:</td><td><div>Project0</div></td></tr><tr><td style="font-weight:bold;vertical-align:top;">view</td><td style="vertical-align:top;">:</td><td><div>default/solution.html</div></td></tr></table></div>'
tRp148
sS'locals'
p149
(dp150
S'CPLEX_DLL_load_dll'
p151
S'<function CPLEX_DLL_load_dll>'
p152
sS'OrderedDict'
p153
S"<class 'collections.OrderedDict'>"
p154
sS'LpStatusNotSolved'
p155
S'0'
sS'EPS'
p156
S'1e-07'
p157
sS'subprocess'
p158
S"<module 'subprocess' from 'C:\\Users\\Aristos\\Downloads\\web2py_win\\web2py\\library.zip\\subprocess.pyc'>"
p159
sS'types'
p160
S"<module 'types' from 'C:\\Users\\Aristos\\Downloads\\web2py_win\\web2py\\library.zip\\types.pyc'>"
p161
sS'LpSenses'
p162
S"{-1: 'Maximize', 1: 'Minimize'}"
p163
sS'GLPK_CMD'
p164
S'<class pulp.solvers.GLPK_CMD>'
p165
sS'cplex_dll_path'
p166
S"'cplex100.dll'"
p167
sS'YAPOSIB'
p168
S'<class pulp.solvers.YAPOSIB>'
p169
sS'collections'
p170
S"<module 'collections' from 'C:\\Users\\Aristos\\Dow...s\\web2py_win\\web2py\\library.zip\\collections.pyc'>"
p171
sS'COIN_CMD'
p172
S'<class pulp.solvers.COIN_CMD>'
p173
sS'tests'
p174
S"<module 'pulp.tests' from 'C:\\Python27\\lib\\site-packages\\pulp\\tests.pyc'>"
p175
sS'random'
p176
S"<module 'random' from 'C:\\Users\\Aristos\\Downloads\\web2py_win\\web2py\\library.zip\\random.pyc'>"
p177
sS'string'
p178
S"<module 'string' from 'C:\\Users\\Aristos\\Downloads\\web2py_win\\web2py\\library.zip\\string.pyc'>"
p179
sS'combination'
p180
S'<function combination>'
p181
sS'VERSION'
p182
S"'1.6.5'"
p183
sS'amply'
p184
S"<module 'pulp.amply' from 'C:\\Python27\\lib\\site-packages\\pulp\\amply.pyc'>"
p185
sS'COIN'
p186
S'<class pulp.solvers.COIN_CMD>'
p187
sS'GLPK'
p188
S'<class pulp.solvers.GLPK_CMD>'
p189
sS'lpSum'
p190
S'<function lpSum>'
p191
sS'operating_system'
p192
S"'win'"
p193
sg138
S'True'
p194
sS'pulpTestAll'
p195
S'<function pulpTestAll>'
p196
sS'sparse'
p197
S"<module 'pulp.sparse' from 'C:\\Python27\\lib\\site-packages\\pulp\\sparse.pyc'>"
p198
sS'probtype'
p199
S'-1'
p200
sS'DIRNAME'
p201
S"r'C:\\Python27\\lib\\site-packages\\pulp'"
p202
sS'Iterable'
p203
S"<class '_abcoll.Iterable'>"
p204
sS'constraints'
p205
S'4'
sS'LpBinary'
p206
S"'Binary'"
p207
sS'PULPCFGFILE'
p208
S"'pulp.cfg.win'"
p209
sS'SCIP_CMD'
p210
S'<class pulp.solvers.SCIP_CMD>'
p211
sS'coinMP_path'
p212
S"[r'C:\\Python27\\lib\\site-packages\\pulp\\libCoinMP.so']"
p213
sS'mktemp'
p214
S'<function mktemp>'
p215
sS'PYGLPK'
p216
S'<class pulp.solvers.PYGLPK>'
p217
sS'clock'
p218
S'<built-in function clock>'
p219
sS'valueOrDefault'
p220
S'<function valueOrDefault>'
p221
sS'LpStatusInfeasible'
p222
S'-1'
p223
sS'cbc_path'
p224
S"'cbc'"
p225
sS'COINMP_DLL'
p226
S'<class pulp.solvers.COINMP_DLL>'
p227
sS'setConfigInformation'
p228
S'<function setConfigInformation>'
p229
sS'LpMinimize'
p230
S'1'
sS'PulpError'
p231
S"<class 'pulp.constants.PulpError'>"
p232
sS'prob'
p233
S'Branch & Bound:\nMAXIMIZE\n19.0*x_1 + 27.0*x_2 + 2...LES\nx_1 Continuous\nx_2 Continuous\nx_3 Continuous\n'
p234
sS'math'
p235
S"<module 'math' (built-in)>"
p236
sS'GUROBI_CMD'
p237
S'<class pulp.solvers.GUROBI_CMD>'
p238
sS'gurobipy'
p239
S'None'
p240
sS'LpStatusUndefined'
p241
S'-3'
p242
sS'Tree'
p243
S"<class 'treelib.tree.Tree'>"
p244
sS'LpConstraintGE'
p245
S'1'
sS'LpVariableDict'
p246
S"<class 'pulp.pulp.LpVariableDict'>"
p247
sS'ctypes'
p248
S"<module 'ctypes' from 'C:\\Users\\Aristos\\Download...b2py_win\\web2py\\library.zip\\ctypes\\__init__.pyc'>"
p249
sS'scip_path'
p250
S"'scip'"
p251
sS'initialize'
p252
S'<function initialize>'
p253
sS'COINMP_DLL_load_dll'
p254
S'<function COINMP_DLL_load_dll>'
p255
sS'pulp_cbc_path'
p256
S"r'C:\\Python27\\lib\\site-packages\\pulp\\solverdir\\cbc\\win\\32\\cbc.exe'"
p257
sS'logging'
p258
S"<module 'logging' from 'C:\\Users\\Aristos\\Downloa...2py_win\\web2py\\library.zip\\logging\\__init__.pyc'>"
p259
sS'FixedElasticSubProblem'
p260
S"<class 'pulp.pulp.FixedElasticSubProblem'>"
p261
sS'constraint'
p262
S'-3.0*x_1 + 4.0*x_2 + 2.0*x_3 + 0.0'
p263
sS'CPLEX'
p264
S'<class pulp.solvers.CPLEX_CMD>'
p265
sS'itertools'
p266
S"<module 'itertools' (built-in)>"
p267
sS'maketrans'
p268
S'<built-in function maketrans>'
p269
sS'permutation'
p270
S'<function permutation>'
p271
sS'os'
p272
S"<module 'os' from 'C:\\Users\\Aristos\\Downloads\\web2py_win\\web2py\\library.zip\\os.pyc'>"
p273
sS'config_filename'
p274
S"r'C:\\Python27\\lib\\site-packages\\pulp\\pulp.cfg.win'"
p275
sS'LpContinuous'
p276
S"'Continuous'"
p277
sS'lpDot'
p278
S'<function lpDot>'
p279
sS'glpk_path'
p280
S"'glpsol'"
p281
sS'variables'
p282
S'4'
sS'LpMaximize'
p283
S'-1'
p284
sS'pulpDoctest'
p285
S'<function pulpDoctest>'
p286
sS'read_table'
p287
S'<function read_table>'
p288
sS'solvers'
p289
S"<module 'pulp.solvers' from 'C:\\Python27\\lib\\site-packages\\pulp\\solvers.pyc'>"
p290
sS'LpStatus'
p291
S"{-3: 'Undefined', -2: 'Unbounded', -1: 'Infeasible', 0: 'Not Solved', 1: 'Optimal'}"
p292
sS'variableslist'
p293
S'[x_1, x_2, x_3]'
p294
sS'allcombinations'
p295
S'<function allcombinations>'
p296
sS'Node'
p297
S"<class 'treelib.node.Node'>"
p298
sS'log'
p299
S'<logging.Logger object>'
p300
sS'FractionElasticSubProblem'
p301
S"<class 'pulp.pulp.FractionElasticSubProblem'>"
p302
sS'LpFractionConstraint'
p303
S"<class 'pulp.pulp.LpFractionConstraint'>"
p304
sS'LpCplexLPLineSize'
p305
S'78'
p306
sS'json'
p307
S"<module 'json' from 'C:\\Users\\Aristos\\Downloads\\web2py_win\\web2py\\library.zip\\json\\__init__.pyc'>"
p308
sS'glpk'
p309
S'None'
p310
sS'LpStatusOptimal'
p311
S'1'
sS'is_64bits'
p312
S'False'
p313
sS'Amply'
p314
S"<class 'pulp.amply.Amply'>"
p315
sS'LpConstraintVar'
p316
S"<class 'pulp.pulp.LpConstraintVar'>"
p317
sS'CPLEX_CMD'
p318
S'<class pulp.solvers.CPLEX_CMD>'
p319
sS'isNumber'
p320
S'<function isNumber>'
p321
sS'LpConstraintEQ'
p322
S'0'
sS'LpSolverDefault'
p323
S'<pulp.solvers.PULP_CBC_CMD instance>'
p324
sS'AmplyError'
p325
S"<class 'pulp.amply.AmplyError'>"
p326
sS'j'
S'3'
sS'tree'
p327
S'<treelib.tree.Tree object>'
p328
sS'value'
p329
S'<function value>'
p330
sS'v'
S'x_1'
p331
sS'problem'
p332
S"{u'b_1': 7.0, u'b_2': 11.0, u'b_3': 5.0, u'c_1x_1': 4.0, u'c_1x_2': -3.0, u'c_1x_3': 1.0, u'c_2x_1': 2.0, u'c_2x_2': 1.0, u'c_2x_3': -2.0, u'c_3x_1': -3.0, ...}"
p333
sS'LpCategories'
p334
S"{'Binary': 'Binary', 'Continuous': 'Continuous', 'Integer': 'Integer'}"
p335
sS'pulp'
p336
S"<module 'pulp.pulp' from 'C:\\Python27\\lib\\site-packages\\pulp\\pulp.pyc'>"
p337
sS'LpConstraintLE'
p338
S'-1'
p339
sS'LpProblem'
p340
S"<class 'pulp.pulp.LpProblem'>"
p341
sS'makeDict'
p342
S'<function makeDict>'
p343
sS'XPRESS'
p344
S'<class pulp.solvers.XPRESS>'
p345
sS'LpSolver'
p346
S'<class pulp.solvers.LpSolver>'
p347
sS'yaposib'
p348
S'None'
p349
sS'LpSolver_CMD'
p350
S'<class pulp.solvers.LpSolver_CMD>'
p351
sS'LpInteger'
p352
S"'Integer'"
p353
sS'configparser'
p354
S"<module 'ConfigParser' from 'C:\\Users\\Aristos\\Do...\\web2py_win\\web2py\\library.zip\\ConfigParser.pyc'>"
p355
sS'PulpSolverError'
p356
S"<class 'pulp.solvers.PulpSolverError'>"
p357
sS'node_list'
p358
S'[]'
p359
sS'LpStatusUnbounded'
p360
S'-2'
p361
sS'GUROBI'
p362
S'<class pulp.solvers.GUROBI>'
p363
sS'LpConstraint'
p364
S"<class 'pulp.pulp.LpConstraint'>"
p365
sS'LpConstraintSenses'
p366
S"{-1: '<=', 0: '=', 1: '>='}"
p367
sS'GurobiFormulation'
p368
S"<class 'pulp.solvers.GurobiFormulation'>"
p369
sS'objective'
p370
S'19.0*x_1 + 27.0*x_2 + 23.0*x_3 + 0.0'
p371
sS'gurobi_path'
p372
S"r'C:\\gurobi10\\win32\\python2.5\\lib'"
p373
sS'ctypesArrayFill'
p374
S'<function ctypesArrayFill>'
p375
sS'Result'
p376
S"{'obj': 223.1111114}"
p377
sS'non_int_variables'
p378
S'[]'
p379
sS'LpVariable'
p380
S"<class 'pulp.pulp.LpVariable'>"
p381
sS'warnings'
p382
S"<module 'warnings' from 'C:\\Users\\Aristos\\Downloads\\web2py_win\\web2py\\library.zip\\warnings.pyc'>"
p383
sS'best_node'
p384
S"{'limit': -inf, 'node': 'none'}"
p385
sS'allpermutations'
p386
S'<function allpermutations>'
p387
sS'sys'
p388
S"<module 'sys' (built-in)>"
p389
sS'isiterable'
p390
S'<function isiterable>'
p391
sS'LpAffineExpression'
p392
S"<class 'pulp.pulp.LpAffineExpression'>"
p393
sS'CPLEX_DLL'
p394
S'<class pulp.solvers.CPLEX_DLL>'
p395
sS'arch'
p396
S"'32'"
p397
sS'ilm_cplex_license_signature'
p398
S'0'
sS'constants'
p399
S"<module 'pulp.constants' from 'C:\\Python27\\lib\\site-packages\\pulp\\constants.pyc'>"
p400
sS'SCIP'
p401
S'<class pulp.solvers.SCIP_CMD>'
p402
sS'configSolvers'
p403
S'<function configSolvers>'
p404
sS'i'
S'3'
sS'PULP_CBC_CMD'
p405
S'<class pulp.solvers.PULP_CBC_CMD>'
p406
sS'LpElement'
p407
S"<class 'pulp.pulp.LpElement'>"
p408
sS'splitDict'
p409
S'<function splitDict>'
p410
sS'ilm_cplex_license'
p411
S"'LICENSE your-enterprise\\nRUNTIME NEVER ...'"
p412
sS'CPLEX_PY'
p413
S'<class pulp.solvers.CPLEX_PY>'
p414
sssS'traceback'
p415
S'Traceback (most recent call last):\n  File "C:\\Users\\Aristos\\Downloads\\web2py_win\\web2py\\gluon\\restricted.py", line 227, in restricted\n    exec ccode in environment\n  File "C:\\Users\\Aristos\\Downloads\\web2py_win\\web2py\\applications\\Project0\\controllers/default.py", line 228, in <module>\n  File "C:\\Users\\Aristos\\Downloads\\web2py_win\\web2py\\gluon\\globals.py", line 417, in <lambda>\n    self._caller = lambda f: f()\n  File "C:\\Users\\Aristos\\Downloads\\web2py_win\\web2py\\applications\\Project0\\controllers/default.py", line 107, in solution\n    Result[\'vars\'][v.name]=\'{var}={value}\'.format(var=v.name,value=v.varValue)\nKeyError: \'vars\'\n'
p416
s.